target datalayout = "e-m:e-p270:32:32-p271:32:32-p272:64:64-i64:64-i128:128-f80:128-n8:16:32:64-S128"
target triple = "x86_64-pc-linux-gnu"

@stderr = external global ptr, align 8
@.str = private unnamed_addr constant [43 x i8] c"Warning: degenerate circle of %u vertices\0A\00", align 1

; Function Attrs: nounwind uwtable
define dso_local void @makePath(i32 noundef %0, ptr noundef %1) #0 {
  %3 = alloca i32, align 4
  %4 = alloca ptr, align 8
  %5 = alloca i32, align 4
  store i32 %0, ptr %3, align 4, !tbaa !4
  store ptr %1, ptr %4, align 8, !tbaa !8
  %6 = load i32, ptr %3, align 4, !tbaa !4
  %7 = icmp eq i32 %6, 1
  br i1 %7, label %8, label %10

8:                                                ; preds = %2
  %9 = load ptr, ptr %4, align 8, !tbaa !8
  call void %9(i32 noundef 1, i32 noundef 0)
  br label %24

10:                                               ; preds = %2
  call void @llvm.lifetime.start.p0(i64 4, ptr %5) #11
  store i32 2, ptr %5, align 4, !tbaa !4
  br label %11

11:                                               ; preds = %21, %10
  %12 = load i32, ptr %5, align 4, !tbaa !4
  %13 = load i32, ptr %3, align 4, !tbaa !4
  %14 = icmp ule i32 %12, %13
  br i1 %14, label %16, label %15

15:                                               ; preds = %11
  call void @llvm.lifetime.end.p0(i64 4, ptr %5) #11
  br label %24

16:                                               ; preds = %11
  %17 = load ptr, ptr %4, align 8, !tbaa !8
  %18 = load i32, ptr %5, align 4, !tbaa !4
  %19 = sub i32 %18, 1
  %20 = load i32, ptr %5, align 4, !tbaa !4
  call void %17(i32 noundef %19, i32 noundef %20)
  br label %21

21:                                               ; preds = %16
  %22 = load i32, ptr %5, align 4, !tbaa !4
  %23 = add i32 %22, 1
  store i32 %23, ptr %5, align 4, !tbaa !4
  br label %11, !llvm.loop !10

24:                                               ; preds = %8, %15
  ret void
}

; Function Attrs: nounwind uwtable
define dso_local void @makeCircle(i32 noundef %0, ptr noundef %1) #0 {
  %3 = alloca i32, align 4
  %4 = alloca ptr, align 8
  %5 = alloca i32, align 4
  store i32 %0, ptr %3, align 4, !tbaa !4
  store ptr %1, ptr %4, align 8, !tbaa !8
  %6 = load i32, ptr %3, align 4, !tbaa !4
  %7 = icmp ult i32 %6, 3
  br i1 %7, label %8, label %14

8:                                                ; preds = %2
  %9 = load ptr, ptr @stderr, align 8, !tbaa !14
  %10 = load i32, ptr %3, align 4, !tbaa !4
  %11 = call i32 (ptr, ptr, ...) @fprintf(ptr noundef %9, ptr noundef @.str, i32 noundef %10) #11
  %12 = load i32, ptr %3, align 4, !tbaa !4
  %13 = load ptr, ptr %4, align 8, !tbaa !8
  call void @makePath(i32 noundef %12, ptr noundef %13)
  br label %31

14:                                               ; preds = %2
  call void @llvm.lifetime.start.p0(i64 4, ptr %5) #11
  store i32 1, ptr %5, align 4, !tbaa !4
  br label %15

15:                                               ; preds = %25, %14
  %16 = load i32, ptr %5, align 4, !tbaa !4
  %17 = load i32, ptr %3, align 4, !tbaa !4
  %18 = icmp ult i32 %16, %17
  br i1 %18, label %20, label %19

19:                                               ; preds = %15
  call void @llvm.lifetime.end.p0(i64 4, ptr %5) #11
  br label %28

20:                                               ; preds = %15
  %21 = load ptr, ptr %4, align 8, !tbaa !8
  %22 = load i32, ptr %5, align 4, !tbaa !4
  %23 = load i32, ptr %5, align 4, !tbaa !4
  %24 = add i32 %23, 1
  call void %21(i32 noundef %22, i32 noundef %24)
  br label %25

25:                                               ; preds = %20
  %26 = load i32, ptr %5, align 4, !tbaa !4
  %27 = add i32 %26, 1
  store i32 %27, ptr %5, align 4, !tbaa !4
  br label %15, !llvm.loop !16

28:                                               ; preds = %19
  %29 = load ptr, ptr %4, align 8, !tbaa !8
  %30 = load i32, ptr %3, align 4, !tbaa !4
  call void %29(i32 noundef 1, i32 noundef %30)
  br label %31

31:                                               ; preds = %28, %8
  ret void
}