; Function Attrs: nounwind uwtable
define dso_local void @makeCircle(i32 noundef %0, ptr noundef readonly captures(none) %1) local_unnamed_addr #0 {
  %3 = icmp ult i32 %0, 3
  br i1 %3, label %4, label %.preheader

4:                                                ; preds = %2
  %5 = load ptr, ptr @stderr, align 8, !tbaa !8
  %6 = tail call i32 (ptr, ptr, ...) @fprintf(ptr noundef %5, ptr noundef nonnull @.str, i32 noundef %0) #16
  switch i32 %0, label %makePath.exit.loopexit [
    i32 1, label %makePath.exit.sink.split
    i32 0, label %makePath.exit
  ]

.preheader:                                       ; preds = %2, %.preheader
  %.012 = phi i32 [ %7, %.preheader ], [ 1, %2 ]
  %7 = add nuw i32 %.012, 1
  tail call void %1(i32 noundef %.012, i32 noundef %7) #15
  %exitcond.not = icmp eq i32 %7, %0
  br i1 %exitcond.not, label %makePath.exit.sink.split, label %.preheader, !llvm.loop !13

makePath.exit.loopexit:                           ; preds = %4
  br label %makePath.exit.sink.split

makePath.exit.sink.split:                         ; preds = %.preheader, %4, %makePath.exit.loopexit
  %.sink = phi i32 [ 2, %makePath.exit.loopexit ], [ 0, %4 ], [ %0, %.preheader ]
  tail call void %1(i32 noundef 1, i32 noundef %.sink) #15
  br label %makePath.exit

makePath.exit:                                    ; preds = %makePath.exit.sink.split, %4
  ret void
}